target datalayout = "e-m:e-p270:32:32-p271:32:32-p272:64:64-i64:64-i128:128-f80:128-n8:16:32:64-S128"
target triple = "x86_64-pc-linux-gnu"

%struct.ARKodeARKStepMemRec = type { ptr, ptr, i32, i32, i32, i32, i32, i32, ptr, ptr, ptr, ptr, ptr, ptr, i32, i32, i32, i32, ptr, ptr, ptr, ptr, i32, ptr, double, double, double, double, i32, double, double, double, double, double, double, i32, i64, i32, i32, i32, ptr, ptr, ptr, ptr, ptr, ptr, i32, ptr, ptr, ptr, ptr, ptr, ptr, i32, i32, i64, i64, i64, i64, i64, ptr, ptr, i32, i32, i32, double, double, ptr, i32, ptr, ptr }
%struct.ARKodeMemRec = type { ptr, double, ptr, i32, i32, double, double, ptr, i32, double, ptr, i32, i32, ptr, ptr, i32, ptr, ptr, i32, ptr, ptr, ptr, ptr, ptr, ptr, ptr, ptr, ptr, ptr, ptr, ptr, ptr, ptr, ptr, i32, ptr, ptr, i32, ptr, i32, ptr, ptr, ptr, ptr, ptr, ptr, ptr, ptr, ptr, ptr, ptr, ptr, ptr, ptr, ptr, ptr, ptr, ptr, ptr, ptr, ptr, ptr, ptr, ptr, ptr, ptr, i32, ptr, ptr, ptr, ptr, ptr, ptr, ptr, i32, ptr, ptr, ptr, i32, ptr, ptr, ptr, ptr, ptr, ptr, ptr, i32, i32, i32, i32, double, double, double, double, double, double, double, double, double, double, i32, ptr, i64, i32, i32, i32, i32, i64, i64, i32, i64, i64, i64, i64, i64, i64, i64, double, double, double, double, double, i32, double, double, i32, i32, i32, i32, i32, i32, i32, i32, ptr, i32, ptr, ptr, ptr, ptr, i32, i32, i32 }
%struct.ARKodeHAdaptMemRec = type { double, double, double, double, i32, double, double, double, double, double, double, i32, i32, i32, i32, ptr, i32, ptr, ptr, i64, i64 }

@__func__.ARKStepGetTimestepperStats = private unnamed_addr constant [27 x i8] c"ARKStepGetTimestepperStats\00", align 1

; Function Attrs: nounwind uwtable
define i32 @ARKStepGetTimestepperStats(ptr noundef %0, ptr noundef %1, ptr noundef %2, ptr noundef %3, ptr noundef %4, ptr noundef %5, ptr noundef %6, ptr noundef %7) #0 {
  %9 = alloca i32, align 4
  %10 = alloca ptr, align 8
  %11 = alloca ptr, align 8
  %12 = alloca ptr, align 8
  %13 = alloca ptr, align 8
  %14 = alloca ptr, align 8
  %15 = alloca ptr, align 8
  %16 = alloca ptr, align 8
  %17 = alloca ptr, align 8
  %18 = alloca ptr, align 8
  %19 = alloca ptr, align 8
  %20 = alloca i32, align 4
  %21 = alloca i32, align 4
  store ptr %0, ptr %10, align 8, !tbaa !3
  store ptr %1, ptr %11, align 8, !tbaa !52
  store ptr %2, ptr %12, align 8, !tbaa !52
  store ptr %3, ptr %13, align 8, !tbaa !52
  store ptr %4, ptr %14, align 8, !tbaa !52
  store ptr %5, ptr %15, align 8, !tbaa !52
  store ptr %6, ptr %16, align 8, !tbaa !52
  store ptr %7, ptr %17, align 8, !tbaa !52
  call void @llvm.lifetime.start.p0(i64 8, ptr %18) #4
  call void @llvm.lifetime.start.p0(i64 8, ptr %19) #4
  call void @llvm.lifetime.start.p0(i64 4, ptr %20) #4
  %22 = load ptr, ptr %10, align 8, !tbaa !3
  %23 = call i32 @arkStep_AccessARKODEStepMem(ptr noundef %22, ptr noundef @__func__.ARKStepGetTimestepperStats, ptr noundef %18, ptr noundef %19)
  store i32 %23, ptr %20, align 4, !tbaa !7
  %24 = load i32, ptr %20, align 4, !tbaa !7
  %25 = icmp ne i32 %24, 0
  br i1 %25, label %26, label %28

26:                                               ; preds = %8
  %27 = load i32, ptr %20, align 4, !tbaa !7
  store i32 %27, ptr %9, align 4
  store i32 1, ptr %21, align 4
  br label %61

28:                                               ; preds = %8
  %29 = load ptr, ptr %18, align 8, !tbaa !20
  %30 = getelementptr inbounds nuw %struct.ARKodeMemRec, ptr %29, i32 0, i32 101
  %31 = load ptr, ptr %30, align 8, !tbaa !58
  %32 = getelementptr inbounds nuw %struct.ARKodeHAdaptMemRec, ptr %31, i32 0, i32 20
  %33 = load i64, ptr %32, align 8, !tbaa !59
  %34 = load ptr, ptr %11, align 8, !tbaa !52
  store i64 %33, ptr %34, align 8, !tbaa !44
  %35 = load ptr, ptr %18, align 8, !tbaa !20
  %36 = getelementptr inbounds nuw %struct.ARKodeMemRec, ptr %35, i32 0, i32 101
  %37 = load ptr, ptr %36, align 8, !tbaa !58
  %38 = getelementptr inbounds nuw %struct.ARKodeHAdaptMemRec, ptr %37, i32 0, i32 19
  %39 = load i64, ptr %38, align 8, !tbaa !62
  %40 = load ptr, ptr %12, align 8, !tbaa !52
  store i64 %39, ptr %40, align 8, !tbaa !44
  %41 = load ptr, ptr %18, align 8, !tbaa !20
  %42 = getelementptr inbounds nuw %struct.ARKodeMemRec, ptr %41, i32 0, i32 107
  %43 = load i64, ptr %42, align 8, !tbaa !63
  %44 = load ptr, ptr %13, align 8, !tbaa !52
  store i64 %43, ptr %44, align 8, !tbaa !44
  %45 = load ptr, ptr %19, align 8, !tbaa !9
  %46 = getelementptr inbounds nuw %struct.ARKodeARKStepMemRec, ptr %45, i32 0, i32 55
  %47 = load i64, ptr %46, align 8, !tbaa !54
  %48 = load ptr, ptr %14, align 8, !tbaa !52
  store i64 %47, ptr %48, align 8, !tbaa !44
  %49 = load ptr, ptr %19, align 8, !tbaa !9
  %50 = getelementptr inbounds nuw %struct.ARKodeARKStepMemRec, ptr %49, i32 0, i32 56
  %51 = load i64, ptr %50, align 8, !tbaa !55
  %52 = load ptr, ptr %15, align 8, !tbaa !52
  store i64 %51, ptr %52, align 8, !tbaa !44
  %53 = load ptr, ptr %19, align 8, !tbaa !9
  %54 = getelementptr inbounds nuw %struct.ARKodeARKStepMemRec, ptr %53, i32 0, i32 57
  %55 = load i64, ptr %54, align 8, !tbaa !64
  %56 = load ptr, ptr %16, align 8, !tbaa !52
  store i64 %55, ptr %56, align 8, !tbaa !44
  %57 = load ptr, ptr %18, align 8, !tbaa !20
  %58 = getelementptr inbounds nuw %struct.ARKodeMemRec, ptr %57, i32 0, i32 111
  %59 = load i64, ptr %58, align 8, !tbaa !65
  %60 = load ptr, ptr %17, align 8, !tbaa !52
  store i64 %59, ptr %60, align 8, !tbaa !44
  store i32 0, ptr %9, align 4
  store i32 1, ptr %21, align 4
  br label %61

61:                                               ; preds = %28, %26
  call void @llvm.lifetime.end.p0(i64 4, ptr %20) #4
  call void @llvm.lifetime.end.p0(i64 8, ptr %19) #4
  call void @llvm.lifetime.end.p0(i64 8, ptr %18) #4
  %62 = load i32, ptr %9, align 4
  ret i32 %62
}