; Function Attrs: nounwind uwtable
define i32 @ARKStepGetTimestepperStats(ptr noundef %0, ptr noundef writeonly captures(none) %1, ptr noundef writeonly captures(none) %2, ptr noundef writeonly captures(none) %3, ptr noundef writeonly captures(none) %4, ptr noundef writeonly captures(none) %5, ptr noundef writeonly captures(none) %6, ptr noundef writeonly captures(none) %7) local_unnamed_addr #0 {
  %9 = alloca ptr, align 8
  %10 = alloca ptr, align 8
  call void @llvm.lifetime.start.p0(i64 8, ptr nonnull %9) #5
  call void @llvm.lifetime.start.p0(i64 8, ptr nonnull %10) #5
  %11 = call i32 @arkStep_AccessARKODEStepMem(ptr noundef %0, ptr noundef nonnull @__func__.ARKStepGetTimestepperStats, ptr noundef nonnull %9, ptr noundef nonnull %10) #5
  %.not = icmp eq i32 %11, 0
  br i1 %.not, label %12, label %31

12:                                               ; preds = %8
  %13 = load ptr, ptr %9, align 8, !tbaa !18
  %14 = getelementptr inbounds nuw i8, ptr %13, i64 776
  %15 = load ptr, ptr %14, align 8, !tbaa !50
  %16 = getelementptr inbounds nuw i8, ptr %15, i64 144
  %17 = load i64, ptr %16, align 8, !tbaa !51
  store i64 %17, ptr %1, align 8, !tbaa !41
  %18 = getelementptr inbounds nuw i8, ptr %15, i64 136
  %19 = load i64, ptr %18, align 8, !tbaa !54
  store i64 %19, ptr %2, align 8, !tbaa !41
  %20 = getelementptr inbounds nuw i8, ptr %13, i64 808
  %21 = load i64, ptr %20, align 8, !tbaa !55
  store i64 %21, ptr %3, align 8, !tbaa !41
  %22 = load ptr, ptr %10, align 8, !tbaa !3
  %23 = getelementptr inbounds nuw i8, ptr %22, i64 384
  %24 = load i64, ptr %23, align 8, !tbaa !47
  store i64 %24, ptr %4, align 8, !tbaa !41
  %25 = getelementptr inbounds nuw i8, ptr %22, i64 392
  %26 = load i64, ptr %25, align 8, !tbaa !48
  store i64 %26, ptr %5, align 8, !tbaa !41
  %27 = getelementptr inbounds nuw i8, ptr %22, i64 400
  %28 = load i64, ptr %27, align 8, !tbaa !56
  store i64 %28, ptr %6, align 8, !tbaa !41
  %29 = getelementptr inbounds nuw i8, ptr %13, i64 840
  %30 = load i64, ptr %29, align 8, !tbaa !57
  store i64 %30, ptr %7, align 8, !tbaa !41
  br label %31

31:                                               ; preds = %8, %12
  call void @llvm.lifetime.end.p0(i64 8, ptr nonnull %10) #5
  call void @llvm.lifetime.end.p0(i64 8, ptr nonnull %9) #5
  ret i32 %11
}